ARM GAS  /tmp/ccWL0j8N.s 			page 1


   1              		.cpu cortex-m4
   2              		.eabi_attribute 27, 1
   3              		.eabi_attribute 28, 1
   4              		.eabi_attribute 20, 1
   5              		.eabi_attribute 21, 1
   6              		.eabi_attribute 23, 3
   7              		.eabi_attribute 24, 1
   8              		.eabi_attribute 25, 1
   9              		.eabi_attribute 26, 1
  10              		.eabi_attribute 30, 1
  11              		.eabi_attribute 34, 1
  12              		.eabi_attribute 18, 4
  13              		.file	"freertos.c"
  14              		.text
  15              	.Ltext0:
  16              		.cfi_sections	.debug_frame
  17              		.section	.rodata.subscription_callback.str1.4,"aMS",%progbits,1
  18              		.align	2
  19              	.LC0:
  20 0000 4661696C 		.ascii	"Failed status on line %d: %d. Continuing.\012\000"
  20      65642073 
  20      74617475 
  20      73206F6E 
  20      206C696E 
  21 002b 00       		.align	2
  22              	.LC1:
  23 002c 52656365 		.ascii	"Received: %d\012\000"
  23      69766564 
  23      3A202564 
  23      0A00
  24              		.section	.text.subscription_callback,"ax",%progbits
  25              		.align	1
  26              		.global	subscription_callback
  27              		.arch armv7e-m
  28              		.syntax unified
  29              		.thumb
  30              		.thumb_func
  31              		.fpu fpv4-sp-d16
  33              	subscription_callback:
  34              	.LVL0:
  35              	.LFB139:
  36              		.file 1 "Core/Src/freertos.c"
   1:Core/Src/freertos.c **** /* USER CODE BEGIN Header */
   2:Core/Src/freertos.c **** /**
   3:Core/Src/freertos.c ****   ******************************************************************************
   4:Core/Src/freertos.c ****   * File Name          : freertos.c
   5:Core/Src/freertos.c ****   * Description        : Code for freertos applications
   6:Core/Src/freertos.c ****   ******************************************************************************
   7:Core/Src/freertos.c ****   * @attention
   8:Core/Src/freertos.c ****   *
   9:Core/Src/freertos.c ****   * Copyright (c) 2023 STMicroelectronics.
  10:Core/Src/freertos.c ****   * All rights reserved.
  11:Core/Src/freertos.c ****   *
  12:Core/Src/freertos.c ****   * This software is licensed under terms that can be found in the LICENSE file
  13:Core/Src/freertos.c ****   * in the root directory of this software component.
  14:Core/Src/freertos.c ****   * If no LICENSE file comes with this software, it is provided AS-IS.
  15:Core/Src/freertos.c ****   *
ARM GAS  /tmp/ccWL0j8N.s 			page 2


  16:Core/Src/freertos.c ****   ******************************************************************************
  17:Core/Src/freertos.c ****   */
  18:Core/Src/freertos.c **** /* USER CODE END Header */
  19:Core/Src/freertos.c **** 
  20:Core/Src/freertos.c **** /* Includes ------------------------------------------------------------------*/
  21:Core/Src/freertos.c **** #include "FreeRTOS.h"
  22:Core/Src/freertos.c **** #include "task.h"
  23:Core/Src/freertos.c **** #include "main.h"
  24:Core/Src/freertos.c **** #include "cmsis_os.h"
  25:Core/Src/freertos.c **** 
  26:Core/Src/freertos.c **** /* Private includes ----------------------------------------------------------*/
  27:Core/Src/freertos.c **** /* USER CODE BEGIN Includes */
  28:Core/Src/freertos.c **** #include <stdbool.h>
  29:Core/Src/freertos.c **** #include <rcl/rcl.h>
  30:Core/Src/freertos.c **** #include <rcl/error_handling.h>
  31:Core/Src/freertos.c **** #include <rclc/rclc.h>
  32:Core/Src/freertos.c **** #include <rclc/executor.h>
  33:Core/Src/freertos.c **** #include <uxr/client/transport.h>
  34:Core/Src/freertos.c **** #include <rmw_microxrcedds_c/config.h>
  35:Core/Src/freertos.c **** #include <rmw_microros/rmw_microros.h>
  36:Core/Src/freertos.c **** 
  37:Core/Src/freertos.c **** #include <std_msgs/msg/int32.h>
  38:Core/Src/freertos.c **** 
  39:Core/Src/freertos.c **** #include "usart.h"
  40:Core/Src/freertos.c **** /* USER CODE END Includes */
  41:Core/Src/freertos.c **** 
  42:Core/Src/freertos.c **** /* Private typedef -----------------------------------------------------------*/
  43:Core/Src/freertos.c **** typedef StaticTask_t osStaticThreadDef_t;
  44:Core/Src/freertos.c **** /* USER CODE BEGIN PTD */
  45:Core/Src/freertos.c **** 
  46:Core/Src/freertos.c **** /* USER CODE END PTD */
  47:Core/Src/freertos.c **** 
  48:Core/Src/freertos.c **** /* Private define ------------------------------------------------------------*/
  49:Core/Src/freertos.c **** /* USER CODE BEGIN PD */
  50:Core/Src/freertos.c **** 
  51:Core/Src/freertos.c **** /* USER CODE END PD */
  52:Core/Src/freertos.c **** 
  53:Core/Src/freertos.c **** /* Private macro -------------------------------------------------------------*/
  54:Core/Src/freertos.c **** /* USER CODE BEGIN PM */
  55:Core/Src/freertos.c **** 
  56:Core/Src/freertos.c **** /* USER CODE END PM */
  57:Core/Src/freertos.c **** 
  58:Core/Src/freertos.c **** /* Private variables ---------------------------------------------------------*/
  59:Core/Src/freertos.c **** /* USER CODE BEGIN Variables */
  60:Core/Src/freertos.c **** 
  61:Core/Src/freertos.c **** /* USER CODE END Variables */
  62:Core/Src/freertos.c **** /* Definitions for defaultTask */
  63:Core/Src/freertos.c **** osThreadId_t defaultTaskHandle;
  64:Core/Src/freertos.c **** uint32_t defaultTaskBuffer[ 500 ];
  65:Core/Src/freertos.c **** osStaticThreadDef_t defaultTaskControlBlock;
  66:Core/Src/freertos.c **** const osThreadAttr_t defaultTask_attributes = {
  67:Core/Src/freertos.c ****   .name = "defaultTask",
  68:Core/Src/freertos.c ****   .cb_mem = &defaultTaskControlBlock,
  69:Core/Src/freertos.c ****   .cb_size = sizeof(defaultTaskControlBlock),
  70:Core/Src/freertos.c ****   .stack_mem = &defaultTaskBuffer[0],
  71:Core/Src/freertos.c ****   .stack_size = sizeof(defaultTaskBuffer),
  72:Core/Src/freertos.c ****   .priority = (osPriority_t) osPriorityNormal,
ARM GAS  /tmp/ccWL0j8N.s 			page 3


  73:Core/Src/freertos.c **** };
  74:Core/Src/freertos.c **** 
  75:Core/Src/freertos.c **** /* Private function prototypes -----------------------------------------------*/
  76:Core/Src/freertos.c **** /* USER CODE BEGIN FunctionPrototypes */
  77:Core/Src/freertos.c **** bool cubemx_transport_open(struct uxrCustomTransport * transport);
  78:Core/Src/freertos.c **** bool cubemx_transport_close(struct uxrCustomTransport * transport);
  79:Core/Src/freertos.c **** size_t cubemx_transport_write(struct uxrCustomTransport* transport, const uint8_t * buf, size_t len
  80:Core/Src/freertos.c **** size_t cubemx_transport_read(struct uxrCustomTransport* transport, uint8_t* buf, size_t len, int ti
  81:Core/Src/freertos.c **** 
  82:Core/Src/freertos.c **** void * microros_allocate(size_t size, void * state);
  83:Core/Src/freertos.c **** void microros_deallocate(void * pointer, void * state);
  84:Core/Src/freertos.c **** void * microros_reallocate(void * pointer, size_t size, void * state);
  85:Core/Src/freertos.c **** void * microros_zero_allocate(size_t number_of_elements, size_t size_of_element, void * state);
  86:Core/Src/freertos.c **** 
  87:Core/Src/freertos.c **** void StartPublisherTask(void *argument);
  88:Core/Src/freertos.c **** void StartAnotherPublisherTask(void *argument);
  89:Core/Src/freertos.c **** /* USER CODE END FunctionPrototypes */
  90:Core/Src/freertos.c **** 
  91:Core/Src/freertos.c **** void StartDefaultTask(void *argument);
  92:Core/Src/freertos.c **** 
  93:Core/Src/freertos.c **** void MX_FREERTOS_Init(void); /* (MISRA C 2004 rule 8.1) */
  94:Core/Src/freertos.c **** 
  95:Core/Src/freertos.c **** /**
  96:Core/Src/freertos.c ****   * @brief  FreeRTOS initialization
  97:Core/Src/freertos.c ****   * @param  None
  98:Core/Src/freertos.c ****   * @retval None
  99:Core/Src/freertos.c ****   */
 100:Core/Src/freertos.c **** void MX_FREERTOS_Init(void) {
 101:Core/Src/freertos.c ****   /* USER CODE BEGIN Init */
 102:Core/Src/freertos.c **** 
 103:Core/Src/freertos.c ****   /* USER CODE END Init */
 104:Core/Src/freertos.c **** 
 105:Core/Src/freertos.c ****   /* USER CODE BEGIN RTOS_MUTEX */
 106:Core/Src/freertos.c ****   /* add mutexes, ... */
 107:Core/Src/freertos.c ****   /* USER CODE END RTOS_MUTEX */
 108:Core/Src/freertos.c **** 
 109:Core/Src/freertos.c ****   /* USER CODE BEGIN RTOS_SEMAPHORES */
 110:Core/Src/freertos.c ****   /* add semaphores, ... */
 111:Core/Src/freertos.c ****   /* USER CODE END RTOS_SEMAPHORES */
 112:Core/Src/freertos.c **** 
 113:Core/Src/freertos.c ****   /* USER CODE BEGIN RTOS_TIMERS */
 114:Core/Src/freertos.c ****   /* start timers, add new ones, ... */
 115:Core/Src/freertos.c ****   /* USER CODE END RTOS_TIMERS */
 116:Core/Src/freertos.c **** 
 117:Core/Src/freertos.c ****   /* USER CODE BEGIN RTOS_QUEUES */
 118:Core/Src/freertos.c ****   /* add queues, ... */
 119:Core/Src/freertos.c ****   /* USER CODE END RTOS_QUEUES */
 120:Core/Src/freertos.c **** 
 121:Core/Src/freertos.c ****   /* Create the thread(s) */
 122:Core/Src/freertos.c ****   /* creation of defaultTask */
 123:Core/Src/freertos.c ****   defaultTaskHandle = osThreadNew(StartDefaultTask, NULL, &defaultTask_attributes);
 124:Core/Src/freertos.c **** 
 125:Core/Src/freertos.c ****   /* USER CODE BEGIN RTOS_THREADS */
 126:Core/Src/freertos.c **** //  publisherTaskHandle = osThreadNew(StartPublisherTask, NULL, &publisherTask_attributes);
 127:Core/Src/freertos.c **** //  another_publisherTaskHandle = osThreadNew(StartAnotherPublisherTask, NULL, &another_publisherTa
 128:Core/Src/freertos.c **** 
 129:Core/Src/freertos.c ****   /* USER CODE END RTOS_THREADS */
ARM GAS  /tmp/ccWL0j8N.s 			page 4


 130:Core/Src/freertos.c **** 
 131:Core/Src/freertos.c ****   /* USER CODE BEGIN RTOS_EVENTS */
 132:Core/Src/freertos.c ****   /* add events, ... */
 133:Core/Src/freertos.c **** 
 134:Core/Src/freertos.c **** 
 135:Core/Src/freertos.c ****   // micro-ROS configuration
 136:Core/Src/freertos.c **** 
 137:Core/Src/freertos.c ****   rmw_uros_set_custom_transport(
 138:Core/Src/freertos.c ****     true,
 139:Core/Src/freertos.c ****     (void *) &huart3,
 140:Core/Src/freertos.c ****     cubemx_transport_open,
 141:Core/Src/freertos.c ****     cubemx_transport_close,
 142:Core/Src/freertos.c ****     cubemx_transport_write,
 143:Core/Src/freertos.c ****     cubemx_transport_read);
 144:Core/Src/freertos.c **** 
 145:Core/Src/freertos.c ****   rcl_allocator_t freeRTOS_allocator = rcutils_get_zero_initialized_allocator();
 146:Core/Src/freertos.c ****   freeRTOS_allocator.allocate = microros_allocate;
 147:Core/Src/freertos.c ****   freeRTOS_allocator.deallocate = microros_deallocate;
 148:Core/Src/freertos.c ****   freeRTOS_allocator.reallocate = microros_reallocate;
 149:Core/Src/freertos.c ****   freeRTOS_allocator.zero_allocate =  microros_zero_allocate;
 150:Core/Src/freertos.c **** 
 151:Core/Src/freertos.c ****   if (!rcutils_set_default_allocator(&freeRTOS_allocator)) {
 152:Core/Src/freertos.c ****       printf("Error on default allocators (line %d)\n", __LINE__);
 153:Core/Src/freertos.c ****   }
 154:Core/Src/freertos.c **** 
 155:Core/Src/freertos.c ****   /* USER CODE END RTOS_EVENTS */
 156:Core/Src/freertos.c **** 
 157:Core/Src/freertos.c **** }
 158:Core/Src/freertos.c **** 
 159:Core/Src/freertos.c **** 
 160:Core/Src/freertos.c **** #define RCCHECK(fn) { rcl_ret_t temp_rc = fn; if((temp_rc != RCL_RET_OK)){printf("Failed status on 
 161:Core/Src/freertos.c **** #define RCSOFTCHECK(fn) { rcl_ret_t temp_rc = fn; if((temp_rc != RCL_RET_OK)){printf("Failed status
 162:Core/Src/freertos.c **** 
 163:Core/Src/freertos.c **** 
 164:Core/Src/freertos.c **** rcl_subscription_t subscriber;
 165:Core/Src/freertos.c **** rcl_publisher_t publisher;
 166:Core/Src/freertos.c **** std_msgs__msg__Int32 msg;
 167:Core/Src/freertos.c **** 
 168:Core/Src/freertos.c **** void subscription_callback(const void * msgin)
 169:Core/Src/freertos.c **** {
  37              		.loc 1 169 1 view -0
  38              		.cfi_startproc
  39              		@ args = 0, pretend = 0, frame = 0
  40              		@ frame_needed = 0, uses_anonymous_args = 0
  41              		.loc 1 169 1 is_stmt 0 view .LVU1
  42 0000 10B5     		push	{r4, lr}
  43              	.LCFI0:
  44              		.cfi_def_cfa_offset 8
  45              		.cfi_offset 4, -8
  46              		.cfi_offset 14, -4
  47 0002 0446     		mov	r4, r0
 170:Core/Src/freertos.c **** 	const std_msgs__msg__Int32 * msg = (const std_msgs__msg__Int32 *)msgin;
  48              		.loc 1 170 2 is_stmt 1 view .LVU2
  49              	.LVL1:
  50              	.LBB2:
 171:Core/Src/freertos.c ****   RCSOFTCHECK(rcl_publish(&publisher, msg, NULL));
  51              		.loc 1 171 3 view .LVU3
ARM GAS  /tmp/ccWL0j8N.s 			page 5


  52 0004 0022     		movs	r2, #0
  53 0006 0146     		mov	r1, r0
  54 0008 0748     		ldr	r0, .L5
  55              	.LVL2:
  56              		.loc 1 171 3 is_stmt 0 view .LVU4
  57 000a FFF7FEFF 		bl	rcl_publish
  58              	.LVL3:
  59              		.loc 1 171 3 is_stmt 1 view .LVU5
  60 000e 20B9     		cbnz	r0, .L4
  61              	.LVL4:
  62              	.L2:
  63              		.loc 1 171 3 is_stmt 0 view .LVU6
  64              	.LBE2:
  65              		.loc 1 171 50 is_stmt 1 discriminator 3 view .LVU7
 172:Core/Src/freertos.c **** 	printf("Received: %d\n", msg->data);
  66              		.loc 1 172 2 discriminator 3 view .LVU8
  67 0010 2168     		ldr	r1, [r4]
  68 0012 0648     		ldr	r0, .L5+4
  69 0014 FFF7FEFF 		bl	printf
  70              	.LVL5:
 173:Core/Src/freertos.c **** }
  71              		.loc 1 173 1 is_stmt 0 discriminator 3 view .LVU9
  72 0018 10BD     		pop	{r4, pc}
  73              	.LVL6:
  74              	.L4:
  75              		.loc 1 173 1 discriminator 3 view .LVU10
  76 001a 0246     		mov	r2, r0
  77              	.LBB3:
 171:Core/Src/freertos.c ****   RCSOFTCHECK(rcl_publish(&publisher, msg, NULL));
  78              		.loc 1 171 3 is_stmt 1 discriminator 1 view .LVU11
  79 001c AB21     		movs	r1, #171
  80 001e 0448     		ldr	r0, .L5+8
  81              	.LVL7:
 171:Core/Src/freertos.c ****   RCSOFTCHECK(rcl_publish(&publisher, msg, NULL));
  82              		.loc 1 171 3 is_stmt 0 discriminator 1 view .LVU12
  83 0020 FFF7FEFF 		bl	printf
  84              	.LVL8:
 171:Core/Src/freertos.c ****   RCSOFTCHECK(rcl_publish(&publisher, msg, NULL));
  85              		.loc 1 171 3 discriminator 1 view .LVU13
  86 0024 F4E7     		b	.L2
  87              	.L6:
  88 0026 00BF     		.align	2
  89              	.L5:
  90 0028 00000000 		.word	.LANCHOR0
  91 002c 2C000000 		.word	.LC1
  92 0030 00000000 		.word	.LC0
  93              	.LBE3:
  94              		.cfi_endproc
  95              	.LFE139:
  97              		.section	.rodata.StartDefaultTask.str1.4,"aMS",%progbits,1
  98              		.align	2
  99              	.LC2:
 100 0000 4661696C 		.ascii	"Failed status on line %d: %d. Aborting.\012\000"
 100      65642073 
 100      74617475 
 100      73206F6E 
 100      206C696E 
ARM GAS  /tmp/ccWL0j8N.s 			page 6


 101 0029 000000   		.align	2
 102              	.LC3:
 103 002c 00       		.ascii	"\000"
 104 002d 000000   		.align	2
 105              	.LC4:
 106 0030 696E7433 		.ascii	"int32_subscriber_rclc\000"
 106      325F7375 
 106      62736372 
 106      69626572 
 106      5F72636C 
 107 0046 0000     		.align	2
 108              	.LC5:
 109 0048 696E7075 		.ascii	"input_topic\000"
 109      745F746F 
 109      70696300 
 110              		.align	2
 111              	.LC6:
 112 0054 6F757470 		.ascii	"output_topic\000"
 112      75745F74 
 112      6F706963 
 112      00
 113              		.section	.text.StartDefaultTask,"ax",%progbits
 114              		.align	1
 115              		.global	StartDefaultTask
 116              		.syntax unified
 117              		.thumb
 118              		.thumb_func
 119              		.fpu fpv4-sp-d16
 121              	StartDefaultTask:
 122              	.LVL9:
 123              	.LFB140:
 174:Core/Src/freertos.c **** 
 175:Core/Src/freertos.c **** /* USER CODE BEGIN Header_StartDefaultTask */
 176:Core/Src/freertos.c **** /**
 177:Core/Src/freertos.c ****   * @brief  Function implementing the defaultTask thread.
 178:Core/Src/freertos.c ****   * @param  argument: Not used
 179:Core/Src/freertos.c ****   * @retval None
 180:Core/Src/freertos.c ****   */
 181:Core/Src/freertos.c **** /* USER CODE END Header_StartDefaultTask */
 182:Core/Src/freertos.c **** void StartDefaultTask(void *argument)
 183:Core/Src/freertos.c **** {
 124              		.loc 1 183 1 is_stmt 1 view -0
 125              		.cfi_startproc
 126              		@ args = 0, pretend = 0, frame = 216
 127              		@ frame_needed = 0, uses_anonymous_args = 0
 128              		.loc 1 183 1 is_stmt 0 view .LVU15
 129 0000 00B5     		push	{lr}
 130              	.LCFI1:
 131              		.cfi_def_cfa_offset 4
 132              		.cfi_offset 14, -4
 133 0002 B9B0     		sub	sp, sp, #228
 134              	.LCFI2:
 135              		.cfi_def_cfa_offset 232
 184:Core/Src/freertos.c ****   /* USER CODE BEGIN StartDefaultTask */
 185:Core/Src/freertos.c **** 
 186:Core/Src/freertos.c ****   rcl_allocator_t allocator = rcl_get_default_allocator();
 136              		.loc 1 186 3 is_stmt 1 view .LVU16
ARM GAS  /tmp/ccWL0j8N.s 			page 7


 137              		.loc 1 186 31 is_stmt 0 view .LVU17
 138 0004 33A8     		add	r0, sp, #204
 139              	.LVL10:
 140              		.loc 1 186 31 view .LVU18
 141 0006 FFF7FEFF 		bl	rcutils_get_default_allocator
 142              	.LVL11:
 187:Core/Src/freertos.c **** 	rclc_support_t support;
 143              		.loc 1 187 2 is_stmt 1 view .LVU19
 144              	.LBB4:
 188:Core/Src/freertos.c **** 
 189:Core/Src/freertos.c **** 	// create init_options
 190:Core/Src/freertos.c **** 	RCCHECK(rclc_support_init(&support, 0, NULL, &allocator));
 145              		.loc 1 190 2 view .LVU20
 146 000a 33AB     		add	r3, sp, #204
 147 000c 0022     		movs	r2, #0
 148 000e 1146     		mov	r1, r2
 149 0010 26A8     		add	r0, sp, #152
 150 0012 FFF7FEFF 		bl	rclc_support_init
 151              	.LVL12:
 152              		.loc 1 190 2 view .LVU21
 153 0016 0028     		cmp	r0, #0
 154 0018 42D1     		bne	.L18
 155              	.LBE4:
 156              		.loc 1 190 59 discriminator 2 view .LVU22
 191:Core/Src/freertos.c **** 
 192:Core/Src/freertos.c **** 	// create node
 193:Core/Src/freertos.c **** 	rcl_node_t node;
 157              		.loc 1 193 2 discriminator 2 view .LVU23
 158              	.LBB5:
 194:Core/Src/freertos.c **** 	RCCHECK(rclc_node_init_default(&node, "int32_subscriber_rclc", "", &support));
 159              		.loc 1 194 2 discriminator 2 view .LVU24
 160 001a 26AB     		add	r3, sp, #152
 161 001c 364A     		ldr	r2, .L26
 162 001e 3749     		ldr	r1, .L26+4
 163 0020 24A8     		add	r0, sp, #144
 164              	.LVL13:
 165              		.loc 1 194 2 is_stmt 0 discriminator 2 view .LVU25
 166 0022 FFF7FEFF 		bl	rclc_node_init_default
 167              	.LVL14:
 168              		.loc 1 194 2 is_stmt 1 discriminator 2 view .LVU26
 169 0026 0246     		mov	r2, r0
 170 0028 0028     		cmp	r0, #0
 171 002a 41D1     		bne	.L19
 172              	.LBE5:
 173              		.loc 1 194 79 discriminator 2 view .LVU27
 174              	.LBB6:
 195:Core/Src/freertos.c **** 
 196:Core/Src/freertos.c **** 	// create subscriber
 197:Core/Src/freertos.c **** 	RCCHECK(rclc_subscription_init_default(
 175              		.loc 1 197 2 discriminator 2 view .LVU28
 176 002c FFF7FEFF 		bl	rosidl_typesupport_c__get_message_type_support_handle__std_msgs__msg__Int32
 177              	.LVL15:
 178              		.loc 1 197 2 is_stmt 0 discriminator 2 view .LVU29
 179 0030 0246     		mov	r2, r0
 180 0032 334B     		ldr	r3, .L26+8
 181 0034 24A9     		add	r1, sp, #144
 182 0036 3348     		ldr	r0, .L26+12
ARM GAS  /tmp/ccWL0j8N.s 			page 8


 183 0038 FFF7FEFF 		bl	rclc_subscription_init_default
 184              	.LVL16:
 185              		.loc 1 197 2 is_stmt 1 discriminator 2 view .LVU30
 186 003c 0246     		mov	r2, r0
 187 003e 0028     		cmp	r0, #0
 188 0040 3BD1     		bne	.L20
 189              	.LBE6:
 198:Core/Src/freertos.c **** 		&subscriber,
 199:Core/Src/freertos.c **** 		&node,
 200:Core/Src/freertos.c **** 		ROSIDL_GET_MSG_TYPE_SUPPORT(std_msgs, msg, Int32),
 201:Core/Src/freertos.c **** 		"input_topic"));
 190              		.loc 1 201 18 view .LVU31
 191              	.LBB7:
 202:Core/Src/freertos.c **** 
 203:Core/Src/freertos.c ****   RCCHECK(rclc_publisher_init_default(
 192              		.loc 1 203 3 view .LVU32
 193 0042 FFF7FEFF 		bl	rosidl_typesupport_c__get_message_type_support_handle__std_msgs__msg__Int32
 194              	.LVL17:
 195              		.loc 1 203 3 is_stmt 0 view .LVU33
 196 0046 0246     		mov	r2, r0
 197 0048 2F4B     		ldr	r3, .L26+16
 198 004a 24A9     		add	r1, sp, #144
 199 004c 2F48     		ldr	r0, .L26+20
 200 004e FFF7FEFF 		bl	rclc_publisher_init_default
 201              	.LVL18:
 202              		.loc 1 203 3 is_stmt 1 view .LVU34
 203 0052 0246     		mov	r2, r0
 204 0054 0028     		cmp	r0, #0
 205 0056 35D1     		bne	.L21
 206              	.LBE7:
 204:Core/Src/freertos.c **** 		&publisher,
 205:Core/Src/freertos.c **** 		&node,
 206:Core/Src/freertos.c **** 		ROSIDL_GET_MSG_TYPE_SUPPORT(std_msgs, msg, Int32),
 207:Core/Src/freertos.c **** 		"output_topic"));
 207              		.loc 1 207 19 view .LVU35
 208:Core/Src/freertos.c **** 
 209:Core/Src/freertos.c **** 	// create executor
 210:Core/Src/freertos.c **** 	rclc_executor_t executor = rclc_executor_get_zero_initialized_executor();
 208              		.loc 1 210 2 view .LVU36
 209              		.loc 1 210 29 is_stmt 0 view .LVU37
 210 0058 02A8     		add	r0, sp, #8
 211              	.LVL19:
 212              		.loc 1 210 29 view .LVU38
 213 005a FFF7FEFF 		bl	rclc_executor_get_zero_initialized_executor
 214              	.LVL20:
 215              	.LBB8:
 211:Core/Src/freertos.c **** 	RCCHECK(rclc_executor_init(&executor, &support.context, 1, &allocator));
 216              		.loc 1 211 2 is_stmt 1 view .LVU39
 217 005e 33AB     		add	r3, sp, #204
 218 0060 0122     		movs	r2, #1
 219 0062 26A9     		add	r1, sp, #152
 220 0064 02A8     		add	r0, sp, #8
 221 0066 FFF7FEFF 		bl	rclc_executor_init
 222              	.LVL21:
 223              		.loc 1 211 2 view .LVU40
 224 006a 0246     		mov	r2, r0
 225 006c 78BB     		cbnz	r0, .L22
ARM GAS  /tmp/ccWL0j8N.s 			page 9


 226              	.LBE8:
 227              		.loc 1 211 73 discriminator 2 view .LVU41
 228              	.LBB9:
 212:Core/Src/freertos.c **** 	RCCHECK(rclc_executor_add_subscription(&executor, &subscriber, &msg, &subscription_callback, ON_NE
 229              		.loc 1 212 2 discriminator 2 view .LVU42
 230 006e 0023     		movs	r3, #0
 231 0070 0093     		str	r3, [sp]
 232 0072 274B     		ldr	r3, .L26+24
 233 0074 274A     		ldr	r2, .L26+28
 234 0076 2349     		ldr	r1, .L26+12
 235 0078 02A8     		add	r0, sp, #8
 236              	.LVL22:
 237              		.loc 1 212 2 is_stmt 0 discriminator 2 view .LVU43
 238 007a FFF7FEFF 		bl	rclc_executor_add_subscription
 239              	.LVL23:
 240              		.loc 1 212 2 is_stmt 1 discriminator 2 view .LVU44
 241 007e 0246     		mov	r2, r0
 242 0080 50BB     		cbnz	r0, .L23
 243              	.LBE9:
 244              		.loc 1 212 108 discriminator 2 view .LVU45
 213:Core/Src/freertos.c **** 
 214:Core/Src/freertos.c ****   	rclc_executor_spin(&executor);
 245              		.loc 1 214 4 discriminator 2 view .LVU46
 246 0082 02A8     		add	r0, sp, #8
 247              	.LVL24:
 248              		.loc 1 214 4 is_stmt 0 discriminator 2 view .LVU47
 249 0084 FFF7FEFF 		bl	rclc_executor_spin
 250              	.LVL25:
 251              	.LBB10:
 215:Core/Src/freertos.c **** 
 216:Core/Src/freertos.c **** 	RCCHECK(rcl_subscription_fini(&subscriber, &node));
 252              		.loc 1 216 2 is_stmt 1 discriminator 2 view .LVU48
 253 0088 24A9     		add	r1, sp, #144
 254 008a 1E48     		ldr	r0, .L26+12
 255 008c FFF7FEFF 		bl	rcl_subscription_fini
 256              	.LVL26:
 257              		.loc 1 216 2 discriminator 2 view .LVU49
 258 0090 0246     		mov	r2, r0
 259 0092 30BB     		cbnz	r0, .L24
 260              	.LBE10:
 261              		.loc 1 216 52 discriminator 2 view .LVU50
 262              	.LBB11:
 217:Core/Src/freertos.c **** 	RCCHECK(rcl_node_fini(&node));
 263              		.loc 1 217 2 discriminator 2 view .LVU51
 264 0094 24A8     		add	r0, sp, #144
 265              	.LVL27:
 266              		.loc 1 217 2 is_stmt 0 discriminator 2 view .LVU52
 267 0096 FFF7FEFF 		bl	rcl_node_fini
 268              	.LVL28:
 269              		.loc 1 217 2 is_stmt 1 discriminator 2 view .LVU53
 270 009a 0246     		mov	r2, r0
 271 009c 30BB     		cbnz	r0, .L25
 272              	.L16:
 273              	.LBE11:
 274              		.loc 1 217 31 discriminator 1 view .LVU54
 218:Core/Src/freertos.c **** 
 219:Core/Src/freertos.c ****   while(1){
ARM GAS  /tmp/ccWL0j8N.s 			page 10


 275              		.loc 1 219 3 discriminator 1 view .LVU55
 220:Core/Src/freertos.c **** 
 221:Core/Src/freertos.c ****   }
 276              		.loc 1 221 3 discriminator 1 view .LVU56
 219:Core/Src/freertos.c **** 
 277              		.loc 1 219 8 discriminator 1 view .LVU57
 278 009e FEE7     		b	.L16
 279              	.LVL29:
 280              	.L18:
 219:Core/Src/freertos.c **** 
 281              		.loc 1 219 8 is_stmt 0 discriminator 1 view .LVU58
 282 00a0 0246     		mov	r2, r0
 283              	.LBB12:
 190:Core/Src/freertos.c **** 
 284              		.loc 1 190 2 is_stmt 1 discriminator 1 view .LVU59
 285 00a2 BE21     		movs	r1, #190
 286 00a4 1C48     		ldr	r0, .L26+32
 287              	.LVL30:
 190:Core/Src/freertos.c **** 
 288              		.loc 1 190 2 is_stmt 0 discriminator 1 view .LVU60
 289 00a6 FFF7FEFF 		bl	printf
 290              	.LVL31:
 190:Core/Src/freertos.c **** 
 291              		.loc 1 190 2 is_stmt 1 discriminator 1 view .LVU61
 292              	.L7:
 190:Core/Src/freertos.c **** 
 293              		.loc 1 190 2 is_stmt 0 discriminator 1 view .LVU62
 294              	.LBE12:
 222:Core/Src/freertos.c **** 
 223:Core/Src/freertos.c ****   /* USER CODE END StartDefaultTask */
 224:Core/Src/freertos.c **** }
 295              		.loc 1 224 1 view .LVU63
 296 00aa 39B0     		add	sp, sp, #228
 297              	.LCFI3:
 298              		.cfi_remember_state
 299              		.cfi_def_cfa_offset 4
 300              		@ sp needed
 301 00ac 5DF804FB 		ldr	pc, [sp], #4
 302              	.LVL32:
 303              	.L19:
 304              	.LCFI4:
 305              		.cfi_restore_state
 306              	.LBB13:
 194:Core/Src/freertos.c **** 
 307              		.loc 1 194 2 is_stmt 1 discriminator 1 view .LVU64
 308 00b0 C221     		movs	r1, #194
 309 00b2 1948     		ldr	r0, .L26+32
 310              	.LVL33:
 194:Core/Src/freertos.c **** 
 311              		.loc 1 194 2 is_stmt 0 discriminator 1 view .LVU65
 312 00b4 FFF7FEFF 		bl	printf
 313              	.LVL34:
 194:Core/Src/freertos.c **** 
 314              		.loc 1 194 2 is_stmt 1 discriminator 1 view .LVU66
 315 00b8 F7E7     		b	.L7
 316              	.LVL35:
 317              	.L20:
ARM GAS  /tmp/ccWL0j8N.s 			page 11


 194:Core/Src/freertos.c **** 
 318              		.loc 1 194 2 is_stmt 0 discriminator 1 view .LVU67
 319              	.LBE13:
 320              	.LBB14:
 197:Core/Src/freertos.c **** 		&subscriber,
 321              		.loc 1 197 2 is_stmt 1 discriminator 1 view .LVU68
 322 00ba C521     		movs	r1, #197
 323 00bc 1648     		ldr	r0, .L26+32
 324              	.LVL36:
 197:Core/Src/freertos.c **** 		&subscriber,
 325              		.loc 1 197 2 is_stmt 0 discriminator 1 view .LVU69
 326 00be FFF7FEFF 		bl	printf
 327              	.LVL37:
 197:Core/Src/freertos.c **** 		&subscriber,
 328              		.loc 1 197 2 is_stmt 1 discriminator 1 view .LVU70
 329 00c2 F2E7     		b	.L7
 330              	.LVL38:
 331              	.L21:
 197:Core/Src/freertos.c **** 		&subscriber,
 332              		.loc 1 197 2 is_stmt 0 discriminator 1 view .LVU71
 333              	.LBE14:
 334              	.LBB15:
 203:Core/Src/freertos.c **** 		&publisher,
 335              		.loc 1 203 3 is_stmt 1 discriminator 1 view .LVU72
 336 00c4 CB21     		movs	r1, #203
 337 00c6 1448     		ldr	r0, .L26+32
 338              	.LVL39:
 203:Core/Src/freertos.c **** 		&publisher,
 339              		.loc 1 203 3 is_stmt 0 discriminator 1 view .LVU73
 340 00c8 FFF7FEFF 		bl	printf
 341              	.LVL40:
 203:Core/Src/freertos.c **** 		&publisher,
 342              		.loc 1 203 3 is_stmt 1 discriminator 1 view .LVU74
 343 00cc EDE7     		b	.L7
 344              	.LVL41:
 345              	.L22:
 203:Core/Src/freertos.c **** 		&publisher,
 346              		.loc 1 203 3 is_stmt 0 discriminator 1 view .LVU75
 347              	.LBE15:
 348              	.LBB16:
 211:Core/Src/freertos.c **** 	RCCHECK(rclc_executor_add_subscription(&executor, &subscriber, &msg, &subscription_callback, ON_NE
 349              		.loc 1 211 2 is_stmt 1 discriminator 1 view .LVU76
 350 00ce D321     		movs	r1, #211
 351 00d0 1148     		ldr	r0, .L26+32
 352              	.LVL42:
 211:Core/Src/freertos.c **** 	RCCHECK(rclc_executor_add_subscription(&executor, &subscriber, &msg, &subscription_callback, ON_NE
 353              		.loc 1 211 2 is_stmt 0 discriminator 1 view .LVU77
 354 00d2 FFF7FEFF 		bl	printf
 355              	.LVL43:
 211:Core/Src/freertos.c **** 	RCCHECK(rclc_executor_add_subscription(&executor, &subscriber, &msg, &subscription_callback, ON_NE
 356              		.loc 1 211 2 is_stmt 1 discriminator 1 view .LVU78
 357 00d6 E8E7     		b	.L7
 358              	.LVL44:
 359              	.L23:
 211:Core/Src/freertos.c **** 	RCCHECK(rclc_executor_add_subscription(&executor, &subscriber, &msg, &subscription_callback, ON_NE
 360              		.loc 1 211 2 is_stmt 0 discriminator 1 view .LVU79
 361              	.LBE16:
ARM GAS  /tmp/ccWL0j8N.s 			page 12


 362              	.LBB17:
 212:Core/Src/freertos.c **** 
 363              		.loc 1 212 2 is_stmt 1 discriminator 1 view .LVU80
 364 00d8 D421     		movs	r1, #212
 365 00da 0F48     		ldr	r0, .L26+32
 366              	.LVL45:
 212:Core/Src/freertos.c **** 
 367              		.loc 1 212 2 is_stmt 0 discriminator 1 view .LVU81
 368 00dc FFF7FEFF 		bl	printf
 369              	.LVL46:
 212:Core/Src/freertos.c **** 
 370              		.loc 1 212 2 is_stmt 1 discriminator 1 view .LVU82
 371 00e0 E3E7     		b	.L7
 372              	.LVL47:
 373              	.L24:
 212:Core/Src/freertos.c **** 
 374              		.loc 1 212 2 is_stmt 0 discriminator 1 view .LVU83
 375              	.LBE17:
 376              	.LBB18:
 216:Core/Src/freertos.c **** 	RCCHECK(rcl_node_fini(&node));
 377              		.loc 1 216 2 is_stmt 1 discriminator 1 view .LVU84
 378 00e2 D821     		movs	r1, #216
 379 00e4 0C48     		ldr	r0, .L26+32
 380              	.LVL48:
 216:Core/Src/freertos.c **** 	RCCHECK(rcl_node_fini(&node));
 381              		.loc 1 216 2 is_stmt 0 discriminator 1 view .LVU85
 382 00e6 FFF7FEFF 		bl	printf
 383              	.LVL49:
 216:Core/Src/freertos.c **** 	RCCHECK(rcl_node_fini(&node));
 384              		.loc 1 216 2 is_stmt 1 discriminator 1 view .LVU86
 385 00ea DEE7     		b	.L7
 386              	.LVL50:
 387              	.L25:
 216:Core/Src/freertos.c **** 	RCCHECK(rcl_node_fini(&node));
 388              		.loc 1 216 2 is_stmt 0 discriminator 1 view .LVU87
 389              	.LBE18:
 390              	.LBB19:
 217:Core/Src/freertos.c **** 
 391              		.loc 1 217 2 is_stmt 1 discriminator 1 view .LVU88
 392 00ec D921     		movs	r1, #217
 393 00ee 0A48     		ldr	r0, .L26+32
 394              	.LVL51:
 217:Core/Src/freertos.c **** 
 395              		.loc 1 217 2 is_stmt 0 discriminator 1 view .LVU89
 396 00f0 FFF7FEFF 		bl	printf
 397              	.LVL52:
 217:Core/Src/freertos.c **** 
 398              		.loc 1 217 2 is_stmt 1 discriminator 1 view .LVU90
 399 00f4 D9E7     		b	.L7
 400              	.L27:
 401 00f6 00BF     		.align	2
 402              	.L26:
 403 00f8 2C000000 		.word	.LC3
 404 00fc 30000000 		.word	.LC4
 405 0100 48000000 		.word	.LC5
 406 0104 00000000 		.word	.LANCHOR1
 407 0108 54000000 		.word	.LC6
ARM GAS  /tmp/ccWL0j8N.s 			page 13


 408 010c 00000000 		.word	.LANCHOR0
 409 0110 00000000 		.word	subscription_callback
 410 0114 00000000 		.word	.LANCHOR2
 411 0118 00000000 		.word	.LC2
 412              	.LBE19:
 413              		.cfi_endproc
 414              	.LFE140:
 416              		.section	.rodata.MX_FREERTOS_Init.str1.4,"aMS",%progbits,1
 417              		.align	2
 418              	.LC7:
 419 0000 4572726F 		.ascii	"Error on default allocators (line %d)\012\000"
 419      72206F6E 
 419      20646566 
 419      61756C74 
 419      20616C6C 
 420              		.section	.text.MX_FREERTOS_Init,"ax",%progbits
 421              		.align	1
 422              		.global	MX_FREERTOS_Init
 423              		.syntax unified
 424              		.thumb
 425              		.thumb_func
 426              		.fpu fpv4-sp-d16
 428              	MX_FREERTOS_Init:
 429              	.LFB138:
 100:Core/Src/freertos.c ****   /* USER CODE BEGIN Init */
 430              		.loc 1 100 29 view -0
 431              		.cfi_startproc
 432              		@ args = 0, pretend = 0, frame = 24
 433              		@ frame_needed = 0, uses_anonymous_args = 0
 434 0000 00B5     		push	{lr}
 435              	.LCFI5:
 436              		.cfi_def_cfa_offset 4
 437              		.cfi_offset 14, -4
 438 0002 89B0     		sub	sp, sp, #36
 439              	.LCFI6:
 440              		.cfi_def_cfa_offset 40
 123:Core/Src/freertos.c **** 
 441              		.loc 1 123 3 view .LVU92
 123:Core/Src/freertos.c **** 
 442              		.loc 1 123 23 is_stmt 0 view .LVU93
 443 0004 134A     		ldr	r2, .L32
 444 0006 0021     		movs	r1, #0
 445 0008 1348     		ldr	r0, .L32+4
 446 000a FFF7FEFF 		bl	osThreadNew
 447              	.LVL53:
 123:Core/Src/freertos.c **** 
 448              		.loc 1 123 21 view .LVU94
 449 000e 134B     		ldr	r3, .L32+8
 450 0010 1860     		str	r0, [r3]
 137:Core/Src/freertos.c ****     true,
 451              		.loc 1 137 3 is_stmt 1 view .LVU95
 452 0012 134B     		ldr	r3, .L32+12
 453 0014 0193     		str	r3, [sp, #4]
 454 0016 134B     		ldr	r3, .L32+16
 455 0018 0093     		str	r3, [sp]
 456 001a 134B     		ldr	r3, .L32+20
 457 001c 134A     		ldr	r2, .L32+24
ARM GAS  /tmp/ccWL0j8N.s 			page 14


 458 001e 1449     		ldr	r1, .L32+28
 459 0020 0120     		movs	r0, #1
 460 0022 FFF7FEFF 		bl	rmw_uros_set_custom_transport
 461              	.LVL54:
 145:Core/Src/freertos.c ****   freeRTOS_allocator.allocate = microros_allocate;
 462              		.loc 1 145 3 view .LVU96
 145:Core/Src/freertos.c ****   freeRTOS_allocator.allocate = microros_allocate;
 463              		.loc 1 145 40 is_stmt 0 view .LVU97
 464 0026 03A8     		add	r0, sp, #12
 465 0028 FFF7FEFF 		bl	rcutils_get_zero_initialized_allocator
 466              	.LVL55:
 146:Core/Src/freertos.c ****   freeRTOS_allocator.deallocate = microros_deallocate;
 467              		.loc 1 146 3 is_stmt 1 view .LVU98
 146:Core/Src/freertos.c ****   freeRTOS_allocator.deallocate = microros_deallocate;
 468              		.loc 1 146 31 is_stmt 0 view .LVU99
 469 002c 114B     		ldr	r3, .L32+32
 470 002e 0393     		str	r3, [sp, #12]
 147:Core/Src/freertos.c ****   freeRTOS_allocator.reallocate = microros_reallocate;
 471              		.loc 1 147 3 is_stmt 1 view .LVU100
 147:Core/Src/freertos.c ****   freeRTOS_allocator.reallocate = microros_reallocate;
 472              		.loc 1 147 33 is_stmt 0 view .LVU101
 473 0030 114B     		ldr	r3, .L32+36
 474 0032 0493     		str	r3, [sp, #16]
 148:Core/Src/freertos.c ****   freeRTOS_allocator.zero_allocate =  microros_zero_allocate;
 475              		.loc 1 148 3 is_stmt 1 view .LVU102
 148:Core/Src/freertos.c ****   freeRTOS_allocator.zero_allocate =  microros_zero_allocate;
 476              		.loc 1 148 33 is_stmt 0 view .LVU103
 477 0034 114B     		ldr	r3, .L32+40
 478 0036 0593     		str	r3, [sp, #20]
 149:Core/Src/freertos.c **** 
 479              		.loc 1 149 3 is_stmt 1 view .LVU104
 149:Core/Src/freertos.c **** 
 480              		.loc 1 149 36 is_stmt 0 view .LVU105
 481 0038 114B     		ldr	r3, .L32+44
 482 003a 0693     		str	r3, [sp, #24]
 151:Core/Src/freertos.c ****       printf("Error on default allocators (line %d)\n", __LINE__);
 483              		.loc 1 151 3 is_stmt 1 view .LVU106
 151:Core/Src/freertos.c ****       printf("Error on default allocators (line %d)\n", __LINE__);
 484              		.loc 1 151 8 is_stmt 0 view .LVU107
 485 003c 03A8     		add	r0, sp, #12
 486 003e FFF7FEFF 		bl	rcutils_set_default_allocator
 487              	.LVL56:
 151:Core/Src/freertos.c ****       printf("Error on default allocators (line %d)\n", __LINE__);
 488              		.loc 1 151 6 view .LVU108
 489 0042 10B1     		cbz	r0, .L31
 490              	.L28:
 157:Core/Src/freertos.c **** 
 491              		.loc 1 157 1 view .LVU109
 492 0044 09B0     		add	sp, sp, #36
 493              	.LCFI7:
 494              		.cfi_remember_state
 495              		.cfi_def_cfa_offset 4
 496              		@ sp needed
 497 0046 5DF804FB 		ldr	pc, [sp], #4
 498              	.L31:
 499              	.LCFI8:
 500              		.cfi_restore_state
ARM GAS  /tmp/ccWL0j8N.s 			page 15


 152:Core/Src/freertos.c ****   }
 501              		.loc 1 152 7 is_stmt 1 view .LVU110
 502 004a 9821     		movs	r1, #152
 503 004c 0D48     		ldr	r0, .L32+48
 504 004e FFF7FEFF 		bl	printf
 505              	.LVL57:
 157:Core/Src/freertos.c **** 
 506              		.loc 1 157 1 is_stmt 0 view .LVU111
 507 0052 F7E7     		b	.L28
 508              	.L33:
 509              		.align	2
 510              	.L32:
 511 0054 00000000 		.word	.LANCHOR3
 512 0058 00000000 		.word	StartDefaultTask
 513 005c 00000000 		.word	.LANCHOR4
 514 0060 00000000 		.word	cubemx_transport_read
 515 0064 00000000 		.word	cubemx_transport_write
 516 0068 00000000 		.word	cubemx_transport_close
 517 006c 00000000 		.word	cubemx_transport_open
 518 0070 00000000 		.word	huart3
 519 0074 00000000 		.word	microros_allocate
 520 0078 00000000 		.word	microros_deallocate
 521 007c 00000000 		.word	microros_reallocate
 522 0080 00000000 		.word	microros_zero_allocate
 523 0084 00000000 		.word	.LC7
 524              		.cfi_endproc
 525              	.LFE138:
 527              		.global	msg
 528              		.global	publisher
 529              		.global	subscriber
 530              		.global	defaultTask_attributes
 531              		.section	.rodata.str1.4,"aMS",%progbits,1
 532              		.align	2
 533              	.LC8:
 534 0000 64656661 		.ascii	"defaultTask\000"
 534      756C7454 
 534      61736B00 
 535              		.global	defaultTaskControlBlock
 536              		.global	defaultTaskBuffer
 537              		.global	defaultTaskHandle
 538              		.section	.bss.defaultTaskBuffer,"aw",%nobits
 539              		.align	2
 542              	defaultTaskBuffer:
 543 0000 00000000 		.space	2000
 543      00000000 
 543      00000000 
 543      00000000 
 543      00000000 
 544              		.section	.bss.defaultTaskControlBlock,"aw",%nobits
 545              		.align	2
 548              	defaultTaskControlBlock:
 549 0000 00000000 		.space	92
 549      00000000 
 549      00000000 
 549      00000000 
 549      00000000 
 550              		.section	.bss.defaultTaskHandle,"aw",%nobits
ARM GAS  /tmp/ccWL0j8N.s 			page 16


 551              		.align	2
 552              		.set	.LANCHOR4,. + 0
 555              	defaultTaskHandle:
 556 0000 00000000 		.space	4
 557              		.section	.bss.msg,"aw",%nobits
 558              		.align	2
 559              		.set	.LANCHOR2,. + 0
 562              	msg:
 563 0000 00000000 		.space	4
 564              		.section	.bss.publisher,"aw",%nobits
 565              		.align	2
 566              		.set	.LANCHOR0,. + 0
 569              	publisher:
 570 0000 00000000 		.space	4
 571              		.section	.bss.subscriber,"aw",%nobits
 572              		.align	2
 573              		.set	.LANCHOR1,. + 0
 576              	subscriber:
 577 0000 00000000 		.space	4
 578              		.section	.rodata.defaultTask_attributes,"a"
 579              		.align	2
 580              		.set	.LANCHOR3,. + 0
 583              	defaultTask_attributes:
 584 0000 00000000 		.word	.LC8
 585 0004 00000000 		.space	4
 586 0008 00000000 		.word	defaultTaskControlBlock
 587 000c 5C000000 		.word	92
 588 0010 00000000 		.word	defaultTaskBuffer
 589 0014 D0070000 		.word	2000
 590 0018 18000000 		.word	24
 591 001c 00000000 		.space	8
 591      00000000 
 592              		.text
 593              	.Letext0:
 594              		.file 2 "/usr/lib/gcc/arm-none-eabi/10.3.1/include/stddef.h"
 595              		.file 3 "/usr/lib/gcc/arm-none-eabi/10.3.1/include/stdint.h"
 596              		.file 4 "Middlewares/Third_Party/FreeRTOS/Source/portable/GCC/ARM_CM4F/portmacro.h"
 597              		.file 5 "Middlewares/Third_Party/FreeRTOS/Source/include/FreeRTOS.h"
 598              		.file 6 "Drivers/CMSIS/Device/ST/STM32F4xx/Include/stm32f407xx.h"
 599              		.file 7 "Drivers/STM32F4xx_HAL_Driver/Inc/stm32f4xx_hal_def.h"
 600              		.file 8 "Drivers/STM32F4xx_HAL_Driver/Inc/stm32f4xx_hal_dma.h"
 601              		.file 9 "Drivers/STM32F4xx_HAL_Driver/Inc/stm32f4xx_hal_uart.h"
 602              		.file 10 "Middlewares/Third_Party/FreeRTOS/Source/CMSIS_RTOS_V2/cmsis_os2.h"
 603              		.file 11 "micro_ros_stm32cubemx_utils/microros_static_library/libmicroros/microros_include/rcutils
 604              		.file 12 "micro_ros_stm32cubemx_utils/microros_static_library/libmicroros/microros_include/rcl/all
 605              		.file 13 "micro_ros_stm32cubemx_utils/microros_static_library/libmicroros/microros_include/rmw/ret
 606              		.file 14 "micro_ros_stm32cubemx_utils/microros_static_library/libmicroros/microros_include/rcutils
 607              		.file 15 "micro_ros_stm32cubemx_utils/microros_static_library/libmicroros/microros_include/rmw/tim
 608              		.file 16 "micro_ros_stm32cubemx_utils/microros_static_library/libmicroros/microros_include/rmw/typ
 609              		.file 17 "micro_ros_stm32cubemx_utils/microros_static_library/libmicroros/microros_include/rcl/typ
 610              		.file 18 "micro_ros_stm32cubemx_utils/microros_static_library/libmicroros/microros_include/rcl/con
 611              		.file 19 "micro_ros_stm32cubemx_utils/microros_static_library/libmicroros/microros_include/rcl/gua
 612              		.file 20 "micro_ros_stm32cubemx_utils/microros_static_library/libmicroros/microros_include/rcl/nod
 613              		.file 21 "micro_ros_stm32cubemx_utils/microros_static_library/libmicroros/microros_include/rcl/tim
 614              		.file 22 "micro_ros_stm32cubemx_utils/microros_static_library/libmicroros/microros_include/rcl/pub
 615              		.file 23 "micro_ros_stm32cubemx_utils/microros_static_library/libmicroros/microros_include/rcl/sub
 616              		.file 24 "micro_ros_stm32cubemx_utils/microros_static_library/libmicroros/microros_include/rcl/cli
ARM GAS  /tmp/ccWL0j8N.s 			page 17


 617              		.file 25 "micro_ros_stm32cubemx_utils/microros_static_library/libmicroros/microros_include/rcl/ser
 618              		.file 26 "micro_ros_stm32cubemx_utils/microros_static_library/libmicroros/microros_include/rmw/qos
 619              		.file 27 "micro_ros_stm32cubemx_utils/microros_static_library/libmicroros/microros_include/rcl/tim
 620              		.file 28 "micro_ros_stm32cubemx_utils/microros_static_library/libmicroros/microros_include/rcl/eve
 621              		.file 29 "micro_ros_stm32cubemx_utils/microros_static_library/libmicroros/microros_include/rcl/wai
 622              		.file 30 "micro_ros_stm32cubemx_utils/microros_static_library/libmicroros/microros_include/rclc/ty
 623              		.file 31 "micro_ros_stm32cubemx_utils/microros_static_library/libmicroros/microros_include/unique_
 624              		.file 32 "micro_ros_stm32cubemx_utils/microros_static_library/libmicroros/microros_include/builtin
 625              		.file 33 "micro_ros_stm32cubemx_utils/microros_static_library/libmicroros/microros_include/action_
 626              		.file 34 "micro_ros_stm32cubemx_utils/microros_static_library/libmicroros/microros_include/action_
 627              		.file 35 "micro_ros_stm32cubemx_utils/microros_static_library/libmicroros/microros_include/rcl_act
 628              		.file 36 "micro_ros_stm32cubemx_utils/microros_static_library/libmicroros/microros_include/rcl_act
 629              		.file 37 "micro_ros_stm32cubemx_utils/microros_static_library/libmicroros/microros_include/rcl_act
 630              		.file 38 "micro_ros_stm32cubemx_utils/microros_static_library/libmicroros/microros_include/rcl_act
 631              		.file 39 "micro_ros_stm32cubemx_utils/microros_static_library/libmicroros/microros_include/rclc/ac
 632              		.file 40 "micro_ros_stm32cubemx_utils/microros_static_library/libmicroros/microros_include/rclc/ac
 633              		.file 41 "micro_ros_stm32cubemx_utils/microros_static_library/libmicroros/microros_include/rclc/ac
 634              		.file 42 "micro_ros_stm32cubemx_utils/microros_static_library/libmicroros/microros_include/rclc/ex
 635              		.file 43 "micro_ros_stm32cubemx_utils/microros_static_library/libmicroros/microros_include/rclc/ex
 636              		.file 44 "micro_ros_stm32cubemx_utils/microros_static_library/libmicroros/microros_include/std_msg
 637              		.file 45 "Core/Inc/usart.h"
 638              		.file 46 "micro_ros_stm32cubemx_utils/microros_static_library/libmicroros/microros_include/rclc/in
 639              		.file 47 "/usr/include/newlib/stdio.h"
 640              		.file 48 "micro_ros_stm32cubemx_utils/microros_static_library/libmicroros/microros_include/rclc/no
 641              		.file 49 "micro_ros_stm32cubemx_utils/microros_static_library/libmicroros/microros_include/std_msg
 642              		.file 50 "micro_ros_stm32cubemx_utils/microros_static_library/libmicroros/microros_include/rclc/su
 643              		.file 51 "micro_ros_stm32cubemx_utils/microros_static_library/libmicroros/microros_include/rclc/pu
 644              		.file 52 "micro_ros_stm32cubemx_utils/microros_static_library/libmicroros/microros_include/rmw_mic
ARM GAS  /tmp/ccWL0j8N.s 			page 18

